target datalayout = "e-m:e-p270:32:32-p271:32:32-p272:64:64-i64:64-i128:128-f80:128-n8:16:32:64-S128"
target triple = "x86_64-pc-linux-gnu"

%struct._ts = type { ptr, ptr, ptr, i64, %struct.anon.805, i32, i32, i32, i32, i32, i32, i32, i32, ptr, ptr, ptr, ptr, ptr, ptr, ptr, ptr, i32, ptr, i64, i64, ptr, i64, i32, ptr, ptr, ptr, i64, i64, ptr, ptr, ptr, %struct._err_stackitem, ptr, i64, ptr, ptr }
%struct.anon.805 = type { i32 }
%struct._err_stackitem = type { ptr, ptr }

; Function Attrs: nounwind uwtable
define dso_local ptr @_PyThreadState_GetDict(ptr noundef %0) #0 {
  %2 = alloca ptr, align 8
  store ptr %0, ptr %2, align 8, !tbaa !4
  %3 = load ptr, ptr %2, align 8, !tbaa !4
  %4 = getelementptr inbounds nuw %struct._ts, ptr %3, i32 0, i32 20
  %5 = load ptr, ptr %4, align 8, !tbaa !289
  %6 = icmp eq ptr %5, null
  br i1 %6, label %7, label %18

7:                                                ; preds = %1
  %8 = call ptr @PyDict_New()
  %9 = load ptr, ptr %2, align 8, !tbaa !4
  %10 = getelementptr inbounds nuw %struct._ts, ptr %9, i32 0, i32 20
  store ptr %8, ptr %10, align 8, !tbaa !289
  %11 = load ptr, ptr %2, align 8, !tbaa !4
  %12 = getelementptr inbounds nuw %struct._ts, ptr %11, i32 0, i32 20
  %13 = load ptr, ptr %12, align 8, !tbaa !289
  %14 = icmp eq ptr %13, null
  br i1 %14, label %15, label %17

15:                                               ; preds = %7
  %16 = load ptr, ptr %2, align 8, !tbaa !4
  call void @_PyErr_Clear(ptr noundef %16)
  br label %17

17:                                               ; preds = %15, %7
  br label %18

18:                                               ; preds = %17, %1
  %19 = load ptr, ptr %2, align 8, !tbaa !4
  %20 = getelementptr inbounds nuw %struct._ts, ptr %19, i32 0, i32 20
  %21 = load ptr, ptr %20, align 8, !tbaa !289
  ret ptr %21
}